target datalayout = "e-m:e-p270:32:32-p271:32:32-p272:64:64-i64:64-i128:128-f80:128-n8:16:32:64-S128"
target triple = "x86_64-pc-linux-gnu"

%"class.std::__cxx11::basic_string" = type { %"struct.std::__cxx11::basic_string<char>::_Alloc_hider", i64, %union.anon }
%"struct.std::__cxx11::basic_string<char>::_Alloc_hider" = type { ptr }
%union.anon = type { i64, [8 x i8] }
%"class.std::allocator.31" = type { i8 }
%"struct.cv::utils::logging::internal::GlobalLoggingInitStruct" = type { %"class.cv::utils::logging::LogTagManager" }
%"class.cv::utils::logging::LogTagManager" = type { %"class.std::recursive_mutex", %"class.std::unique_ptr", %"struct.cv::utils::logging::LogTagManager::NameTable", %"class.std::shared_ptr" }
%"class.std::recursive_mutex" = type { %"class.std::__recursive_mutex_base" }
%"class.std::__recursive_mutex_base" = type { %union.pthread_mutex_t }
%union.pthread_mutex_t = type { %struct.__pthread_mutex_s }
%struct.__pthread_mutex_s = type { i32, i32, i32, i32, i32, i16, i16, %struct.__pthread_internal_list }
%struct.__pthread_internal_list = type { ptr, ptr }
%"class.std::unique_ptr" = type { %"struct.std::__uniq_ptr_data" }
%"struct.std::__uniq_ptr_data" = type { %"class.std::__uniq_ptr_impl" }
%"class.std::__uniq_ptr_impl" = type { %"class.std::tuple" }
%"class.std::tuple" = type { %"struct.std::_Tuple_impl" }
%"struct.std::_Tuple_impl" = type { %"struct.std::_Head_base.1" }
%"struct.std::_Head_base.1" = type { ptr }
%"struct.cv::utils::logging::LogTagManager::NameTable" = type { %"class.std::vector", %"class.std::vector.2", %"class.std::unordered_map", %"class.std::unordered_map", %"class.std::unordered_multimap", %"class.std::unordered_multimap" }
%"class.std::vector" = type { %"struct.std::_Vector_base" }
%"struct.std::_Vector_base" = type { %"struct.std::_Vector_base<cv::utils::logging::LogTagManager::FullNameInfo, std::allocator<cv::utils::logging::LogTagManager::FullNameInfo>>::_Vector_impl" }
%"struct.std::_Vector_base<cv::utils::logging::LogTagManager::FullNameInfo, std::allocator<cv::utils::logging::LogTagManager::FullNameInfo>>::_Vector_impl" = type { %"struct.std::_Vector_base<cv::utils::logging::LogTagManager::FullNameInfo, std::allocator<cv::utils::logging::LogTagManager::FullNameInfo>>::_Vector_impl_data" }
%"struct.std::_Vector_base<cv::utils::logging::LogTagManager::FullNameInfo, std::allocator<cv::utils::logging::LogTagManager::FullNameInfo>>::_Vector_impl_data" = type { ptr, ptr, ptr }
%"class.std::vector.2" = type { %"struct.std::_Vector_base.3" }
%"struct.std::_Vector_base.3" = type { %"struct.std::_Vector_base<cv::utils::logging::LogTagManager::NamePartInfo, std::allocator<cv::utils::logging::LogTagManager::NamePartInfo>>::_Vector_impl" }
%"struct.std::_Vector_base<cv::utils::logging::LogTagManager::NamePartInfo, std::allocator<cv::utils::logging::LogTagManager::NamePartInfo>>::_Vector_impl" = type { %"struct.std::_Vector_base<cv::utils::logging::LogTagManager::NamePartInfo, std::allocator<cv::utils::logging::LogTagManager::NamePartInfo>>::_Vector_impl_data" }
%"struct.std::_Vector_base<cv::utils::logging::LogTagManager::NamePartInfo, std::allocator<cv::utils::logging::LogTagManager::NamePartInfo>>::_Vector_impl_data" = type { ptr, ptr, ptr }
%"class.std::unordered_map" = type { %"class.std::_Hashtable" }
%"class.std::_Hashtable" = type { ptr, i64, %"struct.std::__detail::_Hash_node_base", i64, %"struct.std::__detail::_Prime_rehash_policy", ptr }
%"struct.std::__detail::_Hash_node_base" = type { ptr }
%"struct.std::__detail::_Prime_rehash_policy" = type { float, i64 }
%"class.std::unordered_multimap" = type { %"class.std::_Hashtable.12" }
%"class.std::_Hashtable.12" = type { ptr, i64, %"struct.std::__detail::_Hash_node_base", i64, %"struct.std::__detail::_Prime_rehash_policy", ptr }
%"class.std::shared_ptr" = type { %"class.std::__shared_ptr" }
%"class.std::__shared_ptr" = type { ptr, %"class.std::__shared_count" }
%"class.std::__shared_count" = type { ptr }
%"struct.cv::utils::logging::LogTag" = type <{ ptr, i32, [4 x i8] }>

@_ZZN2cv5utils7logging8internalL16getLogTagManagerEvE21logTagManagerInstance = internal global ptr null, align 8
@_ZGVZN2cv5utils7logging8internalL16getLogTagManagerEvE21logTagManagerInstance = internal global i64 0, align 8
@_ZZN2cv5utils7logging8internalL19getLogLevelVariableEvE17refGlobalLogLevel = internal global ptr null, align 8
@_ZGVZN2cv5utils7logging8internalL19getLogLevelVariableEvE17refGlobalLogLevel = internal global i64 0, align 8

; Function Attrs: mustprogress uwtable
define internal noundef nonnull align 4 dereferenceable(4) ptr @_ZN2cv5utils7logging8internalL19getLogLevelVariableEv() #4 personality ptr @__gxx_personality_v0 {
  %1 = alloca ptr, align 8
  %2 = alloca i32, align 4
  %3 = load atomic i8, ptr @_ZGVZN2cv5utils7logging8internalL19getLogLevelVariableEvE17refGlobalLogLevel acquire, align 8
  %4 = icmp eq i8 %3, 0
  br i1 %4, label %5, label %12, !prof !4

5:                                                ; preds = %0
  %6 = call i32 @__cxa_guard_acquire(ptr @_ZGVZN2cv5utils7logging8internalL19getLogLevelVariableEvE17refGlobalLogLevel) #3
  %7 = icmp ne i32 %6, 0
  br i1 %7, label %8, label %12

8:                                                ; preds = %5
  %9 = invoke noundef ptr @_ZN2cv5utils7logging8internal15getGlobalLogTagEv()
          to label %10 unwind label %14

10:                                               ; preds = %8
  %11 = getelementptr inbounds %"struct.cv::utils::logging::LogTag", ptr %9, i32 0, i32 1
  store ptr %11, ptr @_ZZN2cv5utils7logging8internalL19getLogLevelVariableEvE17refGlobalLogLevel, align 8
  call void @__cxa_guard_release(ptr @_ZGVZN2cv5utils7logging8internalL19getLogLevelVariableEvE17refGlobalLogLevel) #3
  br label %12

12:                                               ; preds = %10, %5, %0
  %13 = load ptr, ptr @_ZZN2cv5utils7logging8internalL19getLogLevelVariableEvE17refGlobalLogLevel, align 8
  ret ptr %13

14:                                               ; preds = %8
  %15 = landingpad { ptr, i32 }
          cleanup
  %16 = extractvalue { ptr, i32 } %15, 0
  store ptr %16, ptr %1, align 8
  %17 = extractvalue { ptr, i32 } %15, 1
  store i32 %17, ptr %2, align 4
  call void @__cxa_guard_abort(ptr @_ZGVZN2cv5utils7logging8internalL19getLogLevelVariableEvE17refGlobalLogLevel) #3
  br label %18

18:                                               ; preds = %14
  %19 = load ptr, ptr %1, align 8
  %20 = load i32, ptr %2, align 4
  %21 = insertvalue { ptr, i32 } poison, ptr %19, 0
  %22 = insertvalue { ptr, i32 } %21, i32 %20, 1
  resume { ptr, i32 } %22
}

; Function Attrs: mustprogress uwtable
define internal noundef nonnull align 8 dereferenceable(336) ptr @_ZN2cv5utils7logging8internalL16getLogTagManagerEv() #4 personality ptr @__gxx_personality_v0 {
  %1 = alloca ptr, align 8
  %2 = alloca i32, align 4
  %3 = load atomic i8, ptr @_ZGVZN2cv5utils7logging8internalL16getLogTagManagerEvE21logTagManagerInstance acquire, align 8
  %4 = icmp eq i8 %3, 0
  br i1 %4, label %5, label %12, !prof !4

5:                                                ; preds = %0
  %6 = call i32 @__cxa_guard_acquire(ptr @_ZGVZN2cv5utils7logging8internalL16getLogTagManagerEvE21logTagManagerInstance) #3
  %7 = icmp ne i32 %6, 0
  br i1 %7, label %8, label %12

8:                                                ; preds = %5
  %9 = invoke noundef nonnull align 8 dereferenceable(336) ptr @_ZN2cv5utils7logging8internalL26getGlobalLoggingInitStructEv()
          to label %10 unwind label %14

10:                                               ; preds = %8
  %11 = getelementptr inbounds %"struct.cv::utils::logging::internal::GlobalLoggingInitStruct", ptr %9, i32 0, i32 0
  store ptr %11, ptr @_ZZN2cv5utils7logging8internalL16getLogTagManagerEvE21logTagManagerInstance, align 8
  call void @__cxa_guard_release(ptr @_ZGVZN2cv5utils7logging8internalL16getLogTagManagerEvE21logTagManagerInstance) #3
  br label %12

12:                                               ; preds = %10, %5, %0
  %13 = load ptr, ptr @_ZZN2cv5utils7logging8internalL16getLogTagManagerEvE21logTagManagerInstance, align 8
  ret ptr %13

14:                                               ; preds = %8
  %15 = landingpad { ptr, i32 }
          cleanup
  %16 = extractvalue { ptr, i32 } %15, 0
  store ptr %16, ptr %1, align 8
  %17 = extractvalue { ptr, i32 } %15, 1
  store i32 %17, ptr %2, align 4
  call void @__cxa_guard_abort(ptr @_ZGVZN2cv5utils7logging8internalL16getLogTagManagerEvE21logTagManagerInstance) #3
  br label %18

18:                                               ; preds = %14
  %19 = load ptr, ptr %1, align 8
  %20 = load i32, ptr %2, align 4
  %21 = insertvalue { ptr, i32 } poison, ptr %19, 0
  %22 = insertvalue { ptr, i32 } %21, i32 %20, 1
  resume { ptr, i32 } %22
}

; Function Attrs: mustprogress uwtable
define noundef i32 @_ZN2cv5utils7logging11getLogLevelEv() #4 {
  %1 = call noundef nonnull align 4 dereferenceable(4) ptr @_ZN2cv5utils7logging8internalL19getLogLevelVariableEv()
  %2 = load i32, ptr %1, align 4
  ret i32 %2
}

; Function Attrs: mustprogress uwtable
define noundef i32 @_ZN2cv5utils7logging14getLogTagLevelEPKc(ptr noundef %0) #4 personality ptr @__gxx_personality_v0 {
  %2 = alloca i32, align 4
  %3 = alloca ptr, align 8
  %4 = alloca ptr, align 8
  %5 = alloca %"class.std::__cxx11::basic_string", align 8
  %6 = alloca %"class.std::allocator.31", align 1
  %7 = alloca ptr, align 8
  %8 = alloca i32, align 4
  store ptr %0, ptr %3, align 8
  %9 = load ptr, ptr %3, align 8
  %10 = icmp ne ptr %9, null
  br i1 %10, label %13, label %11

11:                                               ; preds = %1
  %12 = call noundef i32 @_ZN2cv5utils7logging11getLogLevelEv()
  store i32 %12, ptr %2, align 4
  br label %36

13:                                               ; preds = %1
  %14 = call noundef nonnull align 8 dereferenceable(336) ptr @_ZN2cv5utils7logging8internalL16getLogTagManagerEv()
  %15 = load ptr, ptr %3, align 8
  call void @_ZNSaIcEC1Ev(ptr noundef nonnull align 1 dereferenceable(1) %6) #3
  invoke void @_ZNSt7__cxx1112basic_stringIcSt11char_traitsIcESaIcEEC1EPKcRKS3_(ptr noundef nonnull align 8 dereferenceable(32) %5, ptr noundef %15, ptr noundef nonnull align 1 dereferenceable(1) %6)
          to label %16 unwind label %23

16:                                               ; preds = %13
  %17 = invoke noundef ptr @_ZN2cv5utils7logging13LogTagManager3getERKNSt7__cxx1112basic_stringIcSt11char_traitsIcESaIcEEE(ptr noundef nonnull align 8 dereferenceable(336) %14, ptr noundef nonnull align 8 dereferenceable(32) %5)
          to label %18 unwind label %27

18:                                               ; preds = %16
  call void @_ZNSt7__cxx1112basic_stringIcSt11char_traitsIcESaIcEED1Ev(ptr noundef nonnull align 8 dereferenceable(32) %5) #3
  call void @_ZNSaIcED1Ev(ptr noundef nonnull align 1 dereferenceable(1) %6) #3
  store ptr %17, ptr %4, align 8
  %19 = load ptr, ptr %4, align 8
  %20 = icmp ne ptr %19, null
  br i1 %20, label %32, label %21

21:                                               ; preds = %18
  %22 = call noundef i32 @_ZN2cv5utils7logging11getLogLevelEv()
  store i32 %22, ptr %2, align 4
  br label %36

23:                                               ; preds = %13
  %24 = landingpad { ptr, i32 }
          cleanup
  %25 = extractvalue { ptr, i32 } %24, 0
  store ptr %25, ptr %7, align 8
  %26 = extractvalue { ptr, i32 } %24, 1
  store i32 %26, ptr %8, align 4
  br label %31

27:                                               ; preds = %16
  %28 = landingpad { ptr, i32 }
          cleanup
  %29 = extractvalue { ptr, i32 } %28, 0
  store ptr %29, ptr %7, align 8
  %30 = extractvalue { ptr, i32 } %28, 1
  store i32 %30, ptr %8, align 4
  call void @_ZNSt7__cxx1112basic_stringIcSt11char_traitsIcESaIcEED1Ev(ptr noundef nonnull align 8 dereferenceable(32) %5) #3
  br label %31

31:                                               ; preds = %27, %23
  call void @_ZNSaIcED1Ev(ptr noundef nonnull align 1 dereferenceable(1) %6) #3
  br label %38

32:                                               ; preds = %18
  %33 = load ptr, ptr %4, align 8
  %34 = getelementptr inbounds %"struct.cv::utils::logging::LogTag", ptr %33, i32 0, i32 1
  %35 = load i32, ptr %34, align 8
  store i32 %35, ptr %2, align 4
  br label %36

36:                                               ; preds = %32, %21, %11
  %37 = load i32, ptr %2, align 4
  ret i32 %37

38:                                               ; preds = %31
  %39 = load ptr, ptr %7, align 8
  %40 = load i32, ptr %8, align 4
  %41 = insertvalue { ptr, i32 } poison, ptr %39, 0
  %42 = insertvalue { ptr, i32 } %41, i32 %40, 1
  resume { ptr, i32 } %42
}