; Function Attrs: mustprogress uwtable
define noundef i32 @_ZN2cv5utils7logging14getLogTagLevelEPKc(ptr noundef %0) local_unnamed_addr #3 personality ptr @__gxx_personality_v0 {
  %2 = alloca %"class.std::__cxx11::basic_string", align 8
  %3 = alloca %"class.std::allocator.31", align 1
  %.not = icmp eq ptr %0, null
  br i1 %.not, label %4, label %16

4:                                                ; preds = %1
  %5 = load atomic i8, ptr @_ZGVZN2cv5utils7logging8internalL19getLogLevelVariableEvE17refGlobalLogLevel acquire, align 8
  %6 = icmp eq i8 %5, 0
  br i1 %6, label %7, label %_ZN2cv5utils7logging11getLogLevelEv.exit, !prof !4

7:                                                ; preds = %4
  %8 = tail call i32 @__cxa_guard_acquire(ptr nonnull @_ZGVZN2cv5utils7logging8internalL19getLogLevelVariableEvE17refGlobalLogLevel) #8
  %.not.i.i = icmp eq i32 %8, 0
  br i1 %.not.i.i, label %_ZN2cv5utils7logging11getLogLevelEv.exit, label %9

9:                                                ; preds = %7
  %10 = invoke noundef ptr @_ZN2cv5utils7logging8internal15getGlobalLogTagEv()
          to label %11 unwind label %13

11:                                               ; preds = %9
  %12 = getelementptr inbounds i8, ptr %10, i64 8
  store ptr %12, ptr @_ZZN2cv5utils7logging8internalL19getLogLevelVariableEvE17refGlobalLogLevel, align 8
  tail call void @__cxa_guard_release(ptr nonnull @_ZGVZN2cv5utils7logging8internalL19getLogLevelVariableEvE17refGlobalLogLevel) #8
  br label %_ZN2cv5utils7logging11getLogLevelEv.exit

common.resume:                                    ; preds = %46, %39, %24, %13
  %common.resume.op = phi { ptr, i32 } [ %14, %13 ], [ %25, %24 ], [ %40, %39 ], [ %.pn, %46 ]
  resume { ptr, i32 } %common.resume.op

13:                                               ; preds = %9
  %14 = landingpad { ptr, i32 }
          cleanup
  tail call void @__cxa_guard_abort(ptr nonnull @_ZGVZN2cv5utils7logging8internalL19getLogLevelVariableEvE17refGlobalLogLevel) #8
  br label %common.resume

_ZN2cv5utils7logging11getLogLevelEv.exit:         ; preds = %4, %7, %11
  %15 = load ptr, ptr @_ZZN2cv5utils7logging8internalL19getLogLevelVariableEvE17refGlobalLogLevel, align 8
  br label %49

16:                                               ; preds = %1
  %17 = load atomic i8, ptr @_ZGVZN2cv5utils7logging8internalL16getLogTagManagerEvE21logTagManagerInstance acquire, align 8
  %18 = icmp eq i8 %17, 0
  br i1 %18, label %19, label %_ZN2cv5utils7logging8internalL16getLogTagManagerEv.exit, !prof !4

19:                                               ; preds = %16
  %20 = tail call i32 @__cxa_guard_acquire(ptr nonnull @_ZGVZN2cv5utils7logging8internalL16getLogTagManagerEvE21logTagManagerInstance) #8
  %.not.i = icmp eq i32 %20, 0
  br i1 %.not.i, label %_ZN2cv5utils7logging8internalL16getLogTagManagerEv.exit, label %21

21:                                               ; preds = %19
  %22 = invoke fastcc noundef nonnull align 8 dereferenceable(336) ptr @_ZN2cv5utils7logging8internalL26getGlobalLoggingInitStructEv()
          to label %23 unwind label %24

23:                                               ; preds = %21
  store ptr %22, ptr @_ZZN2cv5utils7logging8internalL16getLogTagManagerEvE21logTagManagerInstance, align 8
  tail call void @__cxa_guard_release(ptr nonnull @_ZGVZN2cv5utils7logging8internalL16getLogTagManagerEvE21logTagManagerInstance) #8
  br label %_ZN2cv5utils7logging8internalL16getLogTagManagerEv.exit

24:                                               ; preds = %21
  %25 = landingpad { ptr, i32 }
          cleanup
  tail call void @__cxa_guard_abort(ptr nonnull @_ZGVZN2cv5utils7logging8internalL16getLogTagManagerEvE21logTagManagerInstance) #8
  br label %common.resume

_ZN2cv5utils7logging8internalL16getLogTagManagerEv.exit: ; preds = %16, %19, %23
  %26 = load ptr, ptr @_ZZN2cv5utils7logging8internalL16getLogTagManagerEvE21logTagManagerInstance, align 8
  call void @_ZNSaIcEC1Ev(ptr noundef nonnull align 1 dereferenceable(1) %3) #8
  invoke void @_ZNSt7__cxx1112basic_stringIcSt11char_traitsIcESaIcEEC1EPKcRKS3_(ptr noundef nonnull align 8 dereferenceable(32) %2, ptr noundef nonnull %0, ptr noundef nonnull align 1 dereferenceable(1) %3)
          to label %27 unwind label %42

27:                                               ; preds = %_ZN2cv5utils7logging8internalL16getLogTagManagerEv.exit
  %28 = invoke noundef ptr @_ZN2cv5utils7logging13LogTagManager3getERKNSt7__cxx1112basic_stringIcSt11char_traitsIcESaIcEEE(ptr noundef nonnull align 8 dereferenceable(336) %26, ptr noundef nonnull align 8 dereferenceable(32) %2)
          to label %29 unwind label %44

29:                                               ; preds = %27
  call void @_ZNSt7__cxx1112basic_stringIcSt11char_traitsIcESaIcEED1Ev(ptr noundef nonnull align 8 dereferenceable(32) %2) #8
  call void @_ZNSaIcED1Ev(ptr noundef nonnull align 1 dereferenceable(1) %3) #8
  %.not11 = icmp eq ptr %28, null
  br i1 %.not11, label %30, label %47

30:                                               ; preds = %29
  %31 = load atomic i8, ptr @_ZGVZN2cv5utils7logging8internalL19getLogLevelVariableEvE17refGlobalLogLevel acquire, align 8
  %32 = icmp eq i8 %31, 0
  br i1 %32, label %33, label %_ZN2cv5utils7logging11getLogLevelEv.exit13, !prof !4

33:                                               ; preds = %30
  %34 = call i32 @__cxa_guard_acquire(ptr nonnull @_ZGVZN2cv5utils7logging8internalL19getLogLevelVariableEvE17refGlobalLogLevel) #8
  %.not.i.i12 = icmp eq i32 %34, 0
  br i1 %.not.i.i12, label %_ZN2cv5utils7logging11getLogLevelEv.exit13, label %35

35:                                               ; preds = %33
  %36 = invoke noundef ptr @_ZN2cv5utils7logging8internal15getGlobalLogTagEv()
          to label %37 unwind label %39

37:                                               ; preds = %35
  %38 = getelementptr inbounds i8, ptr %36, i64 8
  store ptr %38, ptr @_ZZN2cv5utils7logging8internalL19getLogLevelVariableEvE17refGlobalLogLevel, align 8
  call void @__cxa_guard_release(ptr nonnull @_ZGVZN2cv5utils7logging8internalL19getLogLevelVariableEvE17refGlobalLogLevel) #8
  br label %_ZN2cv5utils7logging11getLogLevelEv.exit13

39:                                               ; preds = %35
  %40 = landingpad { ptr, i32 }
          cleanup
  call void @__cxa_guard_abort(ptr nonnull @_ZGVZN2cv5utils7logging8internalL19getLogLevelVariableEvE17refGlobalLogLevel) #8
  br label %common.resume

_ZN2cv5utils7logging11getLogLevelEv.exit13:       ; preds = %30, %33, %37
  %41 = load ptr, ptr @_ZZN2cv5utils7logging8internalL19getLogLevelVariableEvE17refGlobalLogLevel, align 8
  br label %49

42:                                               ; preds = %_ZN2cv5utils7logging8internalL16getLogTagManagerEv.exit
  %43 = landingpad { ptr, i32 }
          cleanup
  br label %46

44:                                               ; preds = %27
  %45 = landingpad { ptr, i32 }
          cleanup
  call void @_ZNSt7__cxx1112basic_stringIcSt11char_traitsIcESaIcEED1Ev(ptr noundef nonnull align 8 dereferenceable(32) %2) #8
  br label %46

46:                                               ; preds = %44, %42
  %.pn = phi { ptr, i32 } [ %45, %44 ], [ %43, %42 ]
  call void @_ZNSaIcED1Ev(ptr noundef nonnull align 1 dereferenceable(1) %3) #8
  br label %common.resume

47:                                               ; preds = %29
  %48 = getelementptr inbounds i8, ptr %28, i64 8
  br label %49

49:                                               ; preds = %47, %_ZN2cv5utils7logging11getLogLevelEv.exit13, %_ZN2cv5utils7logging11getLogLevelEv.exit
  %.07.in = phi ptr [ %48, %47 ], [ %41, %_ZN2cv5utils7logging11getLogLevelEv.exit13 ], [ %15, %_ZN2cv5utils7logging11getLogLevelEv.exit ]
  %.07 = load i32, ptr %.07.in, align 4
  ret i32 %.07
}